target datalayout = "e-m:e-p270:32:32-p271:32:32-p272:64:64-i64:64-i128:128-f80:128-n8:16:32:64-S128"
target triple = "x86_64-pc-linux-gnu"

%struct.AVFilterContext = type { ptr, ptr, ptr, ptr, ptr, i32, ptr, ptr, i32, ptr, ptr, i32, i32, ptr, ptr, ptr, ptr, i32, ptr, i32, i32 }
%struct.ConvolveContext = type { ptr, %struct.FFFrameSync, [4 x [16 x ptr]], [4 x [16 x ptr]], [4 x ptr], [4 x ptr], [4 x i32], [4 x i32], [4 x i32], [4 x i32], [4 x i32], [4 x i32], [4 x i32], [4 x ptr], [4 x ptr], [4 x ptr], [4 x ptr], [4 x ptr], [4 x ptr], [4 x ptr], [4 x ptr], i32, i32, i32, float, i32, [4 x i32], ptr, ptr, ptr, ptr }
%struct.FFFrameSync = type { ptr, ptr, i32, %struct.AVRational, i64, ptr, ptr, i32, i32, i8, i8, ptr, i32, i32, i32, i32 }
%struct.AVRational = type { i32, i32 }

; Function Attrs: cold nounwind optsize uwtable
define internal void @uninit(ptr noundef %0) #1 {
  %2 = alloca ptr, align 8
  %3 = alloca ptr, align 8
  %4 = alloca i32, align 4
  %5 = alloca i32, align 4
  store ptr %0, ptr %2, align 8, !tbaa !4
  call void @llvm.lifetime.start.p0(i64 8, ptr %3) #10
  %6 = load ptr, ptr %2, align 8, !tbaa !4
  %7 = getelementptr inbounds nuw %struct.AVFilterContext, ptr %6, i32 0, i32 9
  %8 = load ptr, ptr %7, align 8, !tbaa !9
  store ptr %8, ptr %3, align 8, !tbaa !22
  call void @llvm.lifetime.start.p0(i64 4, ptr %4) #10
  call void @llvm.lifetime.start.p0(i64 4, ptr %5) #10
  store i32 0, ptr %4, align 4, !tbaa !37
  br label %9

9:                                                ; preds = %77, %1
  %10 = load i32, ptr %4, align 4, !tbaa !37
  %11 = icmp slt i32 %10, 4
  br i1 %11, label %12, label %80

12:                                               ; preds = %9
  %13 = load ptr, ptr %3, align 8, !tbaa !22
  %14 = getelementptr inbounds nuw %struct.ConvolveContext, ptr %13, i32 0, i32 13
  %15 = load i32, ptr %4, align 4, !tbaa !37
  %16 = sext i32 %15 to i64
  %17 = getelementptr inbounds [4 x ptr], ptr %14, i64 0, i64 %16
  call void @av_freep(ptr noundef %17)
  %18 = load ptr, ptr %3, align 8, !tbaa !22
  %19 = getelementptr inbounds nuw %struct.ConvolveContext, ptr %18, i32 0, i32 14
  %20 = load i32, ptr %4, align 4, !tbaa !37
  %21 = sext i32 %20 to i64
  %22 = getelementptr inbounds [4 x ptr], ptr %19, i64 0, i64 %21
  call void @av_freep(ptr noundef %22)
  %23 = load ptr, ptr %3, align 8, !tbaa !22
  %24 = getelementptr inbounds nuw %struct.ConvolveContext, ptr %23, i32 0, i32 15
  %25 = load i32, ptr %4, align 4, !tbaa !37
  %26 = sext i32 %25 to i64
  %27 = getelementptr inbounds [4 x ptr], ptr %24, i64 0, i64 %26
  call void @av_freep(ptr noundef %27)
  %28 = load ptr, ptr %3, align 8, !tbaa !22
  %29 = getelementptr inbounds nuw %struct.ConvolveContext, ptr %28, i32 0, i32 16
  %30 = load i32, ptr %4, align 4, !tbaa !37
  %31 = sext i32 %30 to i64
  %32 = getelementptr inbounds [4 x ptr], ptr %29, i64 0, i64 %31
  call void @av_freep(ptr noundef %32)
  %33 = load ptr, ptr %3, align 8, !tbaa !22
  %34 = getelementptr inbounds nuw %struct.ConvolveContext, ptr %33, i32 0, i32 17
  %35 = load i32, ptr %4, align 4, !tbaa !37
  %36 = sext i32 %35 to i64
  %37 = getelementptr inbounds [4 x ptr], ptr %34, i64 0, i64 %36
  call void @av_freep(ptr noundef %37)
  %38 = load ptr, ptr %3, align 8, !tbaa !22
  %39 = getelementptr inbounds nuw %struct.ConvolveContext, ptr %38, i32 0, i32 18
  %40 = load i32, ptr %4, align 4, !tbaa !37
  %41 = sext i32 %40 to i64
  %42 = getelementptr inbounds [4 x ptr], ptr %39, i64 0, i64 %41
  call void @av_freep(ptr noundef %42)
  %43 = load ptr, ptr %3, align 8, !tbaa !22
  %44 = getelementptr inbounds nuw %struct.ConvolveContext, ptr %43, i32 0, i32 19
  %45 = load i32, ptr %4, align 4, !tbaa !37
  %46 = sext i32 %45 to i64
  %47 = getelementptr inbounds [4 x ptr], ptr %44, i64 0, i64 %46
  call void @av_freep(ptr noundef %47)
  %48 = load ptr, ptr %3, align 8, !tbaa !22
  %49 = getelementptr inbounds nuw %struct.ConvolveContext, ptr %48, i32 0, i32 20
  %50 = load i32, ptr %4, align 4, !tbaa !37
  %51 = sext i32 %50 to i64
  %52 = getelementptr inbounds [4 x ptr], ptr %49, i64 0, i64 %51
  call void @av_freep(ptr noundef %52)
  store i32 0, ptr %5, align 4, !tbaa !37
  br label %53

53:                                               ; preds = %73, %12
  %54 = load i32, ptr %5, align 4, !tbaa !37
  %55 = icmp slt i32 %54, 16
  br i1 %55, label %56, label %76

56:                                               ; preds = %53
  %57 = load ptr, ptr %3, align 8, !tbaa !22
  %58 = getelementptr inbounds nuw %struct.ConvolveContext, ptr %57, i32 0, i32 2
  %59 = load i32, ptr %4, align 4, !tbaa !37
  %60 = sext i32 %59 to i64
  %61 = getelementptr inbounds [4 x [16 x ptr]], ptr %58, i64 0, i64 %60
  %62 = load i32, ptr %5, align 4, !tbaa !37
  %63 = sext i32 %62 to i64
  %64 = getelementptr inbounds [16 x ptr], ptr %61, i64 0, i64 %63
  call void @av_tx_uninit(ptr noundef %64)
  %65 = load ptr, ptr %3, align 8, !tbaa !22
  %66 = getelementptr inbounds nuw %struct.ConvolveContext, ptr %65, i32 0, i32 3
  %67 = load i32, ptr %4, align 4, !tbaa !37
  %68 = sext i32 %67 to i64
  %69 = getelementptr inbounds [4 x [16 x ptr]], ptr %66, i64 0, i64 %68
  %70 = load i32, ptr %5, align 4, !tbaa !37
  %71 = sext i32 %70 to i64
  %72 = getelementptr inbounds [16 x ptr], ptr %69, i64 0, i64 %71
  call void @av_tx_uninit(ptr noundef %72)
  br label %73

73:                                               ; preds = %56
  %74 = load i32, ptr %5, align 4, !tbaa !37
  %75 = add nsw i32 %74, 1
  store i32 %75, ptr %5, align 4, !tbaa !37
  br label %53, !llvm.loop !38

76:                                               ; preds = %53
  br label %77

77:                                               ; preds = %76
  %78 = load i32, ptr %4, align 4, !tbaa !37
  %79 = add nsw i32 %78, 1
  store i32 %79, ptr %4, align 4, !tbaa !37
  br label %9, !llvm.loop !40

80:                                               ; preds = %9
  %81 = load ptr, ptr %3, align 8, !tbaa !22
  %82 = getelementptr inbounds nuw %struct.ConvolveContext, ptr %81, i32 0, i32 1
  call void @ff_framesync_uninit(ptr noundef %82)
  call void @llvm.lifetime.end.p0(i64 4, ptr %5) #10
  call void @llvm.lifetime.end.p0(i64 4, ptr %4) #10
  call void @llvm.lifetime.end.p0(i64 8, ptr %3) #10
  ret void
}