; Function Attrs: cold nounwind optsize uwtable
define internal void @uninit(ptr noundef readonly captures(none) %0) #2 {
  %2 = getelementptr inbounds nuw i8, ptr %0, i64 72
  %3 = load ptr, ptr %2, align 8, !tbaa !4
  %4 = getelementptr inbounds nuw i8, ptr %3, i64 1304
  %5 = getelementptr inbounds nuw i8, ptr %3, i64 1336
  %6 = getelementptr inbounds nuw i8, ptr %3, i64 1368
  %7 = getelementptr inbounds nuw i8, ptr %3, i64 1400
  %8 = getelementptr inbounds nuw i8, ptr %3, i64 1432
  %9 = getelementptr inbounds nuw i8, ptr %3, i64 1464
  %10 = getelementptr inbounds nuw i8, ptr %3, i64 1496
  %11 = getelementptr inbounds nuw i8, ptr %3, i64 1528
  %12 = getelementptr inbounds nuw i8, ptr %3, i64 104
  %13 = getelementptr inbounds nuw i8, ptr %3, i64 616
  br label %14

14:                                               ; preds = %1, %26
  %indvars.iv31 = phi i64 [ 0, %1 ], [ %indvars.iv.next32, %26 ]
  %15 = getelementptr inbounds nuw [4 x ptr], ptr %4, i64 0, i64 %indvars.iv31
  tail call void @av_freep(ptr noundef nonnull %15) #14
  %16 = getelementptr inbounds nuw [4 x ptr], ptr %5, i64 0, i64 %indvars.iv31
  tail call void @av_freep(ptr noundef nonnull %16) #14
  %17 = getelementptr inbounds nuw [4 x ptr], ptr %6, i64 0, i64 %indvars.iv31
  tail call void @av_freep(ptr noundef nonnull %17) #14
  %18 = getelementptr inbounds nuw [4 x ptr], ptr %7, i64 0, i64 %indvars.iv31
  tail call void @av_freep(ptr noundef nonnull %18) #14
  %19 = getelementptr inbounds nuw [4 x ptr], ptr %8, i64 0, i64 %indvars.iv31
  tail call void @av_freep(ptr noundef nonnull %19) #14
  %20 = getelementptr inbounds nuw [4 x ptr], ptr %9, i64 0, i64 %indvars.iv31
  tail call void @av_freep(ptr noundef nonnull %20) #14
  %21 = getelementptr inbounds nuw [4 x ptr], ptr %10, i64 0, i64 %indvars.iv31
  tail call void @av_freep(ptr noundef nonnull %21) #14
  %22 = getelementptr inbounds nuw [4 x ptr], ptr %11, i64 0, i64 %indvars.iv31
  tail call void @av_freep(ptr noundef nonnull %22) #14
  br label %23

23:                                               ; preds = %14, %23
  %indvars.iv = phi i64 [ 0, %14 ], [ %indvars.iv.next, %23 ]
  %24 = getelementptr inbounds nuw [4 x [16 x ptr]], ptr %12, i64 0, i64 %indvars.iv31, i64 %indvars.iv
  tail call void @av_tx_uninit(ptr noundef nonnull %24) #14
  %25 = getelementptr inbounds nuw [4 x [16 x ptr]], ptr %13, i64 0, i64 %indvars.iv31, i64 %indvars.iv
  tail call void @av_tx_uninit(ptr noundef nonnull %25) #14
  %indvars.iv.next = add nuw nsw i64 %indvars.iv, 1
  %exitcond.not = icmp eq i64 %indvars.iv.next, 16
  br i1 %exitcond.not, label %26, label %23, !llvm.loop !34

26:                                               ; preds = %23
  %indvars.iv.next32 = add nuw nsw i64 %indvars.iv31, 1
  %exitcond34.not = icmp eq i64 %indvars.iv.next32, 4
  br i1 %exitcond34.not, label %27, label %14, !llvm.loop !36

27:                                               ; preds = %26
  %28 = getelementptr inbounds nuw i8, ptr %3, i64 8
  tail call void @ff_framesync_uninit(ptr noundef nonnull %28) #14
  ret void
}